; Function Attrs: mustprogress nounwind uwtable
define hidden void @_ZN10Type_Array4growEj(ptr nocapture noundef nonnull align 8 dereferenceable(24) %0, i32 noundef %1) local_unnamed_addr #0 align 2 {
  %3 = getelementptr inbounds i8, ptr %0, i64 8
  %4 = load i32, ptr %3, align 8
  %.not = icmp eq i32 %4, 0
  br i1 %.not, label %5, label %19

5:                                                ; preds = %2
  store i32 1, ptr %3, align 8
  %6 = load ptr, ptr %0, align 8
  %7 = getelementptr inbounds i8, ptr %6, i64 40
  %8 = load ptr, ptr %7, align 8
  %9 = getelementptr inbounds i8, ptr %6, i64 32
  %10 = load ptr, ptr %9, align 8
  %11 = ptrtoint ptr %8 to i64
  %12 = ptrtoint ptr %10 to i64
  %13 = sub i64 %11, %12
  %.not.i.i = icmp ult i64 %13, 8
  br i1 %.not.i.i, label %16, label %14

14:                                               ; preds = %5
  %15 = getelementptr inbounds i8, ptr %10, i64 8
  store ptr %15, ptr %9, align 8
  br label %_ZN5Arena7AmallocEmN17AllocFailStrategy13AllocFailEnumE.exit

16:                                               ; preds = %5
  %17 = tail call noundef ptr @_ZN5Arena4growEmN17AllocFailStrategy13AllocFailEnumE(ptr noundef nonnull align 8 dereferenceable(48) %6, i64 noundef 8, i32 noundef 0) #16
  br label %_ZN5Arena7AmallocEmN17AllocFailStrategy13AllocFailEnumE.exit

_ZN5Arena7AmallocEmN17AllocFailStrategy13AllocFailEnumE.exit: ; preds = %14, %16
  %.0.i.i = phi ptr [ %10, %14 ], [ %17, %16 ]
  %18 = getelementptr inbounds i8, ptr %0, i64 16
  store ptr %.0.i.i, ptr %18, align 8
  store ptr null, ptr %.0.i.i, align 8
  %.pre = load i32, ptr %3, align 8
  br label %19

19:                                               ; preds = %_ZN5Arena7AmallocEmN17AllocFailStrategy13AllocFailEnumE.exit, %2
  %20 = phi i32 [ %.pre, %_ZN5Arena7AmallocEmN17AllocFailStrategy13AllocFailEnumE.exit ], [ %4, %2 ]
  %21 = add i32 %1, 1
  %22 = tail call range(i32 0, 33) i32 @llvm.ctpop.i32(i32 %21)
  %or.cond.i.i = icmp eq i32 %22, 1
  %23 = tail call range(i32 0, 33) i32 @llvm.ctlz.i32(i32 %21, i1 true)
  %24 = sub nuw nsw i32 32, %23
  %25 = shl nuw i32 1, %24
  %.0.i.i4 = select i1 %or.cond.i.i, i32 %21, i32 %25
  store i32 %.0.i.i4, ptr %3, align 8
  %26 = load ptr, ptr %0, align 8
  %27 = getelementptr inbounds i8, ptr %0, i64 16
  %28 = load ptr, ptr %27, align 8
  %29 = zext i32 %20 to i64
  %30 = shl nuw nsw i64 %29, 3
  %31 = zext i32 %.0.i.i4 to i64
  %32 = shl nuw nsw i64 %31, 3
  %33 = tail call noundef ptr @_ZN5Arena8AreallocEPvmmN17AllocFailStrategy13AllocFailEnumE(ptr noundef nonnull align 8 dereferenceable(48) %26, ptr noundef %28, i64 noundef %30, i64 noundef %32, i32 noundef 0) #16
  store ptr %33, ptr %27, align 8
  %34 = getelementptr inbounds ptr, ptr %33, i64 %29
  %35 = load i32, ptr %3, align 8
  %36 = sub i32 %35, %20
  %37 = zext i32 %36 to i64
  %38 = shl nuw nsw i64 %37, 3
  tail call void @llvm.memset.p0.i64(ptr align 8 %34, i8 0, i64 %38, i1 false)
  ret void
}